target datalayout = "e-m:e-p270:32:32-p271:32:32-p272:64:64-i64:64-i128:128-f80:128-n8:16:32:64-S128"
target triple = "x86_64-pc-linux-gnu"

%struct.FuncState = type { ptr, ptr, ptr, ptr, ptr, i32, i32, i32, i32, i32, i32, i32, i32, ptr, i32, i32, i8, i8, i8, i8, [200 x i16], [60 x i16], [60 x i16] }

; Function Attrs: nounwind uwtable
define internal void @bcreg_bump(ptr noundef %0, i32 noundef %1) #0 {
  %3 = alloca ptr, align 8
  %4 = alloca i32, align 4
  %5 = alloca i32, align 4
  store ptr %0, ptr %3, align 8, !tbaa !62
  store i32 %1, ptr %4, align 4, !tbaa !79
  call void @llvm.lifetime.start.p0(i64 4, ptr %5) #11
  %6 = load ptr, ptr %3, align 8, !tbaa !62
  %7 = getelementptr inbounds nuw %struct.FuncState, ptr %6, i32 0, i32 8
  %8 = load i32, ptr %7, align 4, !tbaa !71
  %9 = load i32, ptr %4, align 4, !tbaa !79
  %10 = add i32 %8, %9
  store i32 %10, ptr %5, align 4, !tbaa !79
  %11 = load i32, ptr %5, align 4, !tbaa !79
  %12 = load ptr, ptr %3, align 8, !tbaa !62
  %13 = getelementptr inbounds nuw %struct.FuncState, ptr %12, i32 0, i32 18
  %14 = load i8, ptr %13, align 2, !tbaa !77
  %15 = zext i8 %14 to i32
  %16 = icmp ugt i32 %11, %15
  br i1 %16, label %17, label %29

17:                                               ; preds = %2
  %18 = load i32, ptr %5, align 4, !tbaa !79
  %19 = icmp uge i32 %18, 250
  br i1 %19, label %20, label %24

20:                                               ; preds = %17
  %21 = load ptr, ptr %3, align 8, !tbaa !62
  %22 = getelementptr inbounds nuw %struct.FuncState, ptr %21, i32 0, i32 1
  %23 = load ptr, ptr %22, align 8, !tbaa !64
  call void @err_syntax(ptr noundef %23, i32 noundef 2426) #13
  unreachable

24:                                               ; preds = %17
  %25 = load i32, ptr %5, align 4, !tbaa !79
  %26 = trunc i32 %25 to i8
  %27 = load ptr, ptr %3, align 8, !tbaa !62
  %28 = getelementptr inbounds nuw %struct.FuncState, ptr %27, i32 0, i32 18
  store i8 %26, ptr %28, align 2, !tbaa !77
  br label %29

29:                                               ; preds = %24, %2
  call void @llvm.lifetime.end.p0(i64 4, ptr %5) #11
  ret void
}

; Function Attrs: nounwind uwtable
define internal void @bcreg_reserve(ptr noundef %0, i32 noundef %1) #0 {
  %3 = alloca ptr, align 8
  %4 = alloca i32, align 4
  store ptr %0, ptr %3, align 8, !tbaa !62
  store i32 %1, ptr %4, align 4, !tbaa !79
  %5 = load ptr, ptr %3, align 8, !tbaa !62
  %6 = load i32, ptr %4, align 4, !tbaa !79
  call void @bcreg_bump(ptr noundef %5, i32 noundef %6)
  %7 = load i32, ptr %4, align 4, !tbaa !79
  %8 = load ptr, ptr %3, align 8, !tbaa !62
  %9 = getelementptr inbounds nuw %struct.FuncState, ptr %8, i32 0, i32 8
  %10 = load i32, ptr %9, align 4, !tbaa !71
  %11 = add i32 %10, %7
  store i32 %11, ptr %9, align 4, !tbaa !71
  ret void
}