; Function Attrs: nounwind uwtable
define internal fastcc void @bcreg_reserve(ptr noundef captures(none) %0, i32 noundef %1) unnamed_addr #0 {
  %3 = getelementptr inbounds nuw i8, ptr %0, i64 52
  %4 = load i32, ptr %3, align 4, !tbaa !83
  %5 = add i32 %4, %1
  %6 = getelementptr inbounds nuw i8, ptr %0, i64 90
  %7 = load i8, ptr %6, align 2, !tbaa !57
  %8 = zext i8 %7 to i32
  %9 = icmp ugt i32 %5, %8
  br i1 %9, label %10, label %bcreg_bump.exit

10:                                               ; preds = %2
  %11 = icmp ugt i32 %5, 249
  br i1 %11, label %12, label %15

12:                                               ; preds = %10
  %13 = getelementptr inbounds nuw i8, ptr %0, i64 8
  %14 = load ptr, ptr %13, align 8, !tbaa !47
  tail call fastcc void @err_syntax(ptr noundef %14, i32 noundef 2426) #13
  unreachable

15:                                               ; preds = %10
  %16 = trunc nuw i32 %5 to i8
  store i8 %16, ptr %6, align 2, !tbaa !57
  br label %bcreg_bump.exit

bcreg_bump.exit:                                  ; preds = %2, %15
  store i32 %5, ptr %3, align 4, !tbaa !83
  ret void
}